; Function Attrs: nounwind uwtable
define dso_local void @index_rescan(ptr noundef %0, ptr noundef %1, i32 noundef %2, ptr noundef %3, i32 noundef %4) local_unnamed_addr #0 {
  %6 = getelementptr inbounds nuw i8, ptr %0, i64 8
  %7 = load ptr, ptr %6, align 8
  %8 = getelementptr inbounds nuw i8, ptr %7, i64 352
  %9 = load ptr, ptr %8, align 8
  %10 = getelementptr inbounds nuw i8, ptr %9, i64 152
  %11 = load ptr, ptr %10, align 8
  %12 = icmp eq ptr %11, null
  br i1 %12, label %13, label %20

13:                                               ; preds = %5
  %14 = tail call zeroext i1 @errstart_cold(i32 noundef 21, ptr noundef null) #8
  tail call void @llvm.assume(i1 %14)
  %15 = load ptr, ptr %6, align 8
  %16 = getelementptr inbounds nuw i8, ptr %15, i64 56
  %17 = load ptr, ptr %16, align 8
  %18 = getelementptr inbounds nuw i8, ptr %17, i64 4
  %19 = tail call i32 (ptr, ...) @errmsg_internal(ptr noundef nonnull @.str.2, ptr noundef nonnull @.str.4, ptr noundef nonnull %18) #7
  tail call void @errfinish(ptr noundef nonnull @.str.1, i32 noundef 357, ptr noundef nonnull @__func__.index_rescan) #7
  unreachable

20:                                               ; preds = %5
  %21 = getelementptr inbounds nuw i8, ptr %0, i64 104
  %22 = load ptr, ptr %21, align 8
  %.not = icmp eq ptr %22, null
  br i1 %.not, label %29, label %23

23:                                               ; preds = %20
  %24 = load ptr, ptr %22, align 8
  %25 = getelementptr inbounds nuw i8, ptr %24, i64 320
  %26 = load ptr, ptr %25, align 8
  %27 = getelementptr inbounds nuw i8, ptr %26, i64 96
  %28 = load ptr, ptr %27, align 8
  tail call void %28(ptr noundef nonnull %22) #7
  %.pre = load ptr, ptr %6, align 8
  br label %29

29:                                               ; preds = %23, %20
  %30 = phi ptr [ %.pre, %23 ], [ %7, %20 ]
  %31 = getelementptr inbounds nuw i8, ptr %0, i64 50
  store i8 0, ptr %31, align 2
  %32 = getelementptr inbounds nuw i8, ptr %0, i64 102
  store i8 0, ptr %32, align 2
  %33 = getelementptr inbounds nuw i8, ptr %30, i64 352
  %34 = load ptr, ptr %33, align 8
  %35 = getelementptr inbounds nuw i8, ptr %34, i64 152
  %36 = load ptr, ptr %35, align 8
  tail call void %36(ptr noundef nonnull %0, ptr noundef %1, i32 noundef %2, ptr noundef %3, i32 noundef %4) #7
  ret void
}